target datalayout = "e-m:e-p270:32:32-p271:32:32-p272:64:64-i64:64-i128:128-f80:128-n8:16:32:64-S128"
target triple = "x86_64-pc-linux-gnu"

%struct.AVFilterChannelLayouts = type { ptr, i32, i8, i8, i32, ptr }

; Function Attrs: nounwind uwtable
define ptr @ff_all_channel_counts() #0 {
  %1 = alloca ptr, align 8
  %2 = alloca ptr, align 8
  %3 = alloca i32, align 4
  call void @llvm.lifetime.start.p0(i64 8, ptr %2) #7
  %4 = call noalias ptr @av_mallocz(i64 noundef 32)
  store ptr %4, ptr %2, align 8, !tbaa !38
  %5 = load ptr, ptr %2, align 8, !tbaa !38
  %6 = icmp ne ptr %5, null
  br i1 %6, label %8, label %7

7:                                                ; preds = %0
  store ptr null, ptr %1, align 8
  store i32 1, ptr %3, align 4
  br label %14

8:                                                ; preds = %0
  %9 = load ptr, ptr %2, align 8, !tbaa !38
  %10 = getelementptr inbounds nuw %struct.AVFilterChannelLayouts, ptr %9, i32 0, i32 3
  store i8 1, ptr %10, align 1, !tbaa !68
  %11 = load ptr, ptr %2, align 8, !tbaa !38
  %12 = getelementptr inbounds nuw %struct.AVFilterChannelLayouts, ptr %11, i32 0, i32 2
  store i8 1, ptr %12, align 4, !tbaa !67
  %13 = load ptr, ptr %2, align 8, !tbaa !38
  store ptr %13, ptr %1, align 8
  store i32 1, ptr %3, align 4
  br label %14

14:                                               ; preds = %8, %7
  call void @llvm.lifetime.end.p0(i64 8, ptr %2) #7
  %15 = load ptr, ptr %1, align 8
  ret ptr %15
}

; Function Attrs: nounwind uwtable
define i32 @ff_set_common_all_channel_counts(ptr noundef %0) #0 {
  %2 = alloca ptr, align 8
  store ptr %0, ptr %2, align 8, !tbaa !74
  %3 = load ptr, ptr %2, align 8, !tbaa !74
  %4 = call ptr @ff_all_channel_counts()
  %5 = call i32 @ff_set_common_channel_layouts(ptr noundef %3, ptr noundef %4)
  ret i32 %5
}