; Function Attrs: nounwind uwtable
define range(i32 -12, 1) i32 @ff_set_common_all_channel_counts(ptr noundef readonly captures(none) %0) local_unnamed_addr #3 {
  %2 = tail call noalias ptr @av_mallocz(i64 noundef 32) #10
  %.not.i = icmp eq ptr %2, null
  br i1 %.not.i, label %ff_all_channel_counts.exit, label %3

3:                                                ; preds = %1
  %4 = getelementptr inbounds nuw i8, ptr %2, i64 13
  store i8 1, ptr %4, align 1, !tbaa !61
  %5 = getelementptr inbounds nuw i8, ptr %2, i64 12
  store i8 1, ptr %5, align 4, !tbaa !60
  br label %ff_all_channel_counts.exit

ff_all_channel_counts.exit:                       ; preds = %1, %3
  %6 = tail call i32 @ff_set_common_channel_layouts(ptr noundef %0, ptr noundef %2)
  ret i32 %6
}